; Function Attrs: nounwind uwtable
define internal range(i32 -1, 1) i32 @H5T__ref_obj_disk_read(ptr noundef %0, ptr noundef %1, i64 noundef %2, ptr readnone captures(none) %3, ptr noundef %4, i64 %5) #0 {
  %7 = alloca i64, align 8
  store i64 %2, ptr %7, align 8, !tbaa !26
  %8 = load i8, ptr @H5T_init_g, align 1, !tbaa !3, !range !7, !noundef !8
  %9 = trunc nuw i8 %8 to i1
  %10 = load i8, ptr @H5_libterm_g, align 1, !range !7
  %11 = trunc nuw i8 %10 to i1
  %12 = xor i1 %11, true
  %13 = select i1 %9, i1 true, i1 %12
  br i1 %13, label %14, label %30, !prof !9

14:                                               ; preds = %6
  %15 = tail call ptr @H5VL_object_data(ptr noundef %0) #11
  %16 = icmp eq ptr %15, null
  br i1 %16, label %17, label %21

17:                                               ; preds = %14
  %18 = load i64, ptr @H5E_ARGS_g, align 8, !tbaa !26
  %19 = load i64, ptr @H5E_BADTYPE_g, align 8, !tbaa !26
  %20 = tail call i32 (ptr, ptr, i32, i64, i64, ptr, ...) @H5E_printf_stack(ptr noundef nonnull @.str, ptr noundef nonnull @__func__.H5T__ref_obj_disk_read, i32 noundef 1161, i64 noundef %18, i64 noundef %19, ptr noundef nonnull @.str.4) #11
  br label %30

21:                                               ; preds = %14
  %22 = tail call zeroext i8 @H5F_sizeof_addr(ptr noundef nonnull %15) #11
  %23 = zext i8 %22 to i64
  %24 = call i32 @H5R__decode_token_obj_compat(ptr noundef %1, ptr noundef nonnull %7, ptr noundef %4, i64 noundef %23) #11
  %25 = icmp slt i32 %24, 0
  br i1 %25, label %26, label %30

26:                                               ; preds = %21
  %27 = load i64, ptr @H5E_REFERENCE_g, align 8, !tbaa !26
  %28 = load i64, ptr @H5E_CANTDECODE_g, align 8, !tbaa !26
  %29 = call i32 (ptr, ptr, i32, i64, i64, ptr, ...) @H5E_printf_stack(ptr noundef nonnull @.str, ptr noundef nonnull @__func__.H5T__ref_obj_disk_read, i32 noundef 1169, i64 noundef %27, i64 noundef %28, ptr noundef nonnull @.str.24) #11
  br label %30

30:                                               ; preds = %17, %26, %21, %6
  %.0 = phi i32 [ -1, %17 ], [ -1, %26 ], [ 0, %21 ], [ 0, %6 ]
  ret i32 %.0
}